target datalayout = "e-m:e-p270:32:32-p271:32:32-p272:64:64-i64:64-i128:128-f80:128-n8:16:32:64-S128"
target triple = "x86_64-unknown-linux-gnu"

%"class.std::optional" = type { %"struct.std::_Optional_base" }
%"struct.std::_Optional_base" = type { %"struct.std::_Optional_payload" }
%"struct.std::_Optional_payload" = type { %"struct.std::_Optional_payload_base.base", [3 x i8] }
%"struct.std::_Optional_payload_base.base" = type <{ %"union.std::_Optional_payload_base<unsigned int>::_Storage", i8 }>
%"union.std::_Optional_payload_base<unsigned int>::_Storage" = type { i32 }
%"class.std::optional.1" = type { %"struct.std::_Optional_base.2" }
%"struct.std::_Optional_base.2" = type { %"struct.std::_Optional_payload.4" }
%"struct.std::_Optional_payload.4" = type { %"struct.std::_Optional_payload_base.base.6", [3 x i8] }
%"struct.std::_Optional_payload_base.base.6" = type <{ %"union.std::_Optional_payload_base<int>::_Storage", i8 }>
%"union.std::_Optional_payload_base<int>::_Storage" = type { i32 }
%"class.std::basic_string_view" = type { i64, ptr }
%"struct.std::_Optional_payload_base" = type <{ %"union.std::_Optional_payload_base<unsigned int>::_Storage", i8, [3 x i8] }>
%"struct.std::_Optional_payload_base.5" = type <{ %"union.std::_Optional_payload_base<int>::_Storage", i8, [3 x i8] }>

@.str.1 = private unnamed_addr constant [29 x i8] c"grpc.max_send_message_length\00", align 1

; Function Attrs: mustprogress nounwind uwtable
define linkonce_odr void @_ZNSt22_Optional_payload_baseIjE8_StorageIjLb1EEC2IJjEEESt10in_place_tDpOT_(ptr noundef nonnull align 4 dereferenceable(4) %this, ptr noundef nonnull align 4 dereferenceable(4) %__args) unnamed_addr #5 comdat align 2 {
entry:
  %this.addr = alloca ptr, align 8
  %__args.addr = alloca ptr, align 8
  store ptr %this, ptr %this.addr, align 8
  store ptr %__args, ptr %__args.addr, align 8
  %this1 = load ptr, ptr %this.addr, align 8
  %0 = load ptr, ptr %__args.addr, align 8
  %1 = load i32, ptr %0, align 4
  store i32 %1, ptr %this1, align 4
  ret void
}

; Function Attrs: mustprogress nounwind uwtable
define linkonce_odr void @_ZNSt22_Optional_payload_baseIjE8_StorageIjLb1EEC2Ev(ptr noundef nonnull align 4 dereferenceable(4) %this) unnamed_addr #5 comdat align 2 {
entry:
  %this.addr = alloca ptr, align 8
  store ptr %this, ptr %this.addr, align 8
  ret void
}

; Function Attrs: mustprogress uwtable
define linkonce_odr void @_ZNSt22_Optional_payload_baseIjEC2IJjEEESt10in_place_tDpOT_(ptr noundef nonnull align 4 dereferenceable(5) %this, ptr noundef nonnull align 4 dereferenceable(4) %__args) unnamed_addr #4 comdat align 2 {
entry:
  %this.addr = alloca ptr, align 8
  %__args.addr = alloca ptr, align 8
  store ptr %this, ptr %this.addr, align 8
  store ptr %__args, ptr %__args.addr, align 8
  %this1 = load ptr, ptr %this.addr, align 8
  %_M_payload = getelementptr inbounds %"struct.std::_Optional_payload_base", ptr %this1, i32 0, i32 0
  %0 = load ptr, ptr %__args.addr, align 8
  call void @_ZNSt22_Optional_payload_baseIjE8_StorageIjLb1EEC2IJjEEESt10in_place_tDpOT_(ptr noundef nonnull align 4 dereferenceable(4) %_M_payload, ptr noundef nonnull align 4 dereferenceable(4) %0)
  %_M_engaged = getelementptr inbounds %"struct.std::_Optional_payload_base", ptr %this1, i32 0, i32 1
  store i8 1, ptr %_M_engaged, align 4
  ret void
}

; Function Attrs: mustprogress nounwind uwtable
define linkonce_odr void @_ZNSt22_Optional_payload_baseIjEC2Ev(ptr noundef nonnull align 4 dereferenceable(5) %this) unnamed_addr #5 comdat align 2 {
entry:
  %this.addr = alloca ptr, align 8
  store ptr %this, ptr %this.addr, align 8
  %this1 = load ptr, ptr %this.addr, align 8
  %_M_payload = getelementptr inbounds %"struct.std::_Optional_payload_base", ptr %this1, i32 0, i32 0
  call void @_ZNSt22_Optional_payload_baseIjE8_StorageIjLb1EEC2Ev(ptr noundef nonnull align 4 dereferenceable(4) %_M_payload) #3
  %_M_engaged = getelementptr inbounds %"struct.std::_Optional_payload_base", ptr %this1, i32 0, i32 1
  store i8 0, ptr %_M_engaged, align 4
  ret void
}

; Function Attrs: mustprogress uwtable
define linkonce_odr void @_ZNSt17_Optional_payloadIjLb1ELb1ELb1EECI2St22_Optional_payload_baseIjEIJjEEESt10in_place_tDpOT_(ptr noundef nonnull align 4 dereferenceable(5) %this, ptr noundef nonnull align 4 dereferenceable(4) %0) unnamed_addr #4 comdat align 2 {
entry:
  %this.addr = alloca ptr, align 8
  %.addr = alloca ptr, align 8
  store ptr %this, ptr %this.addr, align 8
  store ptr %0, ptr %.addr, align 8
  %this1 = load ptr, ptr %this.addr, align 8
  %1 = load ptr, ptr %.addr, align 8
  call void @_ZNSt22_Optional_payload_baseIjEC2IJjEEESt10in_place_tDpOT_(ptr noundef nonnull align 4 dereferenceable(5) %this1, ptr noundef nonnull align 4 dereferenceable(4) %1)
  ret void
}

; Function Attrs: mustprogress nounwind uwtable
define linkonce_odr noundef nonnull align 4 dereferenceable(4) ptr @_ZNSt22_Optional_payload_baseIiE6_M_getEv(ptr noundef nonnull align 4 dereferenceable(5) %this) #5 comdat align 2 {
entry:
  %this.addr = alloca ptr, align 8
  store ptr %this, ptr %this.addr, align 8
  %this1 = load ptr, ptr %this.addr, align 8
  %_M_payload = getelementptr inbounds %"struct.std::_Optional_payload_base.5", ptr %this1, i32 0, i32 0
  ret ptr %_M_payload
}

; Function Attrs: mustprogress nounwind uwtable
define linkonce_odr void @_ZNSt17_Optional_payloadIjLb1ELb1ELb1EEC2Ev(ptr noundef nonnull align 4 dereferenceable(5) %this) unnamed_addr #5 comdat align 2 {
entry:
  %this.addr = alloca ptr, align 8
  store ptr %this, ptr %this.addr, align 8
  %this1 = load ptr, ptr %this.addr, align 8
  call void @_ZNSt22_Optional_payload_baseIjEC2Ev(ptr noundef nonnull align 4 dereferenceable(5) %this1) #3
  ret void
}

; Function Attrs: mustprogress uwtable
define linkonce_odr void @_ZNSt14_Optional_baseIjLb1ELb1EEC2IJjETnNSt9enable_ifIX18is_constructible_vIjDpT_EEbE4typeELb0EEESt10in_place_tDpOS3_(ptr noundef nonnull align 4 dereferenceable(8) %this, ptr noundef nonnull align 4 dereferenceable(4) %__args) unnamed_addr #4 comdat align 2 {
entry:
  %this.addr = alloca ptr, align 8
  %__args.addr = alloca ptr, align 8
  store ptr %this, ptr %this.addr, align 8
  store ptr %__args, ptr %__args.addr, align 8
  %this1 = load ptr, ptr %this.addr, align 8
  %_M_payload = getelementptr inbounds %"struct.std::_Optional_base", ptr %this1, i32 0, i32 0
  %0 = load ptr, ptr %__args.addr, align 8
  call void @_ZNSt17_Optional_payloadIjLb1ELb1ELb1EECI2St22_Optional_payload_baseIjEIJjEEESt10in_place_tDpOT_(ptr noundef nonnull align 4 dereferenceable(5) %_M_payload, ptr noundef nonnull align 4 dereferenceable(4) %0)
  ret void
}

; Function Attrs: mustprogress nounwind uwtable
define linkonce_odr noundef nonnull align 4 dereferenceable(4) ptr @_ZNSt19_Optional_base_implIiSt14_Optional_baseIiLb1ELb1EEE6_M_getEv(ptr noundef nonnull align 1 dereferenceable(1) %this) #5 comdat align 2 {
entry:
  %this.addr = alloca ptr, align 8
  store ptr %this, ptr %this.addr, align 8
  %this1 = load ptr, ptr %this.addr, align 8
  br label %do.body

do.body:                                          ; preds = %entry
  br label %do.cond

do.cond:                                          ; preds = %do.body
  br label %do.end

do.end:                                           ; preds = %do.cond
  %_M_payload = getelementptr inbounds %"struct.std::_Optional_base.2", ptr %this1, i32 0, i32 0
  %call = call noundef nonnull align 4 dereferenceable(4) ptr @_ZNSt22_Optional_payload_baseIiE6_M_getEv(ptr noundef nonnull align 4 dereferenceable(5) %_M_payload) #3
  ret ptr %call
}

; Function Attrs: mustprogress nounwind uwtable
define linkonce_odr noundef zeroext i1 @_ZNKSt19_Optional_base_implIiSt14_Optional_baseIiLb1ELb1EEE13_M_is_engagedEv(ptr noundef nonnull align 1 dereferenceable(1) %this) #5 comdat align 2 {
entry:
  %this.addr = alloca ptr, align 8
  store ptr %this, ptr %this.addr, align 8
  %this1 = load ptr, ptr %this.addr, align 8
  %_M_payload = getelementptr inbounds %"struct.std::_Optional_base.2", ptr %this1, i32 0, i32 0
  %_M_engaged = getelementptr inbounds %"struct.std::_Optional_payload_base.5", ptr %_M_payload, i32 0, i32 1
  %0 = load i8, ptr %_M_engaged, align 4
  %tobool = trunc i8 %0 to i1
  ret i1 %tobool
}

; Function Attrs: noreturn nounwind uwtable
define linkonce_odr hidden void @__clang_call_terminate(ptr noundef %0) #9 comdat {
  %2 = call ptr @__cxa_begin_catch(ptr %0) #3
  call void @_ZSt9terminatev() #16
  unreachable
}

; Function Attrs: mustprogress nounwind uwtable
define linkonce_odr noundef i64 @_ZNSt11char_traitsIcE6lengthEPKc(ptr noundef %__s) #5 comdat align 2 {
entry:
  %__s.addr = alloca ptr, align 8
  store ptr %__s, ptr %__s.addr, align 8
  %0 = load ptr, ptr %__s.addr, align 8
  %call = call i64 @strlen(ptr noundef %0) #3
  ret i64 %call
}

; Function Attrs: mustprogress nounwind uwtable
define linkonce_odr void @_ZNSt14_Optional_baseIjLb1ELb1EEC2Ev(ptr noundef nonnull align 4 dereferenceable(8) %this) unnamed_addr #5 comdat align 2 {
entry:
  %this.addr = alloca ptr, align 8
  store ptr %this, ptr %this.addr, align 8
  %this1 = load ptr, ptr %this.addr, align 8
  %_M_payload = getelementptr inbounds %"struct.std::_Optional_base", ptr %this1, i32 0, i32 0
  call void @_ZNSt17_Optional_payloadIjLb1ELb1ELb1EEC2Ev(ptr noundef nonnull align 4 dereferenceable(5) %_M_payload) #3
  ret void
}

; Function Attrs: mustprogress nounwind uwtable
define linkonce_odr void @_ZNSt8optionalIjEC2IjTnNSt9enable_ifIX7__and_vISt6__not_ISt7is_sameIS0_NSt9remove_cvINSt16remove_referenceIT_E4typeEE4typeEEES3_IS4_ISt10in_place_tSB_EESt16is_constructibleIjJS7_EESt14is_convertibleIS7_jEEEbE4typeELb1EEEOS7_(ptr noundef nonnull align 4 dereferenceable(8) %this, ptr noundef nonnull align 4 dereferenceable(4) %__t) unnamed_addr #5 comdat align 2 personality ptr @__gxx_personality_v0 {
entry:
  %this.addr = alloca ptr, align 8
  %__t.addr = alloca ptr, align 8
  store ptr %this, ptr %this.addr, align 8
  store ptr %__t, ptr %__t.addr, align 8
  %this1 = load ptr, ptr %this.addr, align 8
  %0 = load ptr, ptr %__t.addr, align 8
  invoke void @_ZNSt14_Optional_baseIjLb1ELb1EEC2IJjETnNSt9enable_ifIX18is_constructible_vIjDpT_EEbE4typeELb0EEESt10in_place_tDpOS3_(ptr noundef nonnull align 4 dereferenceable(8) %this1, ptr noundef nonnull align 4 dereferenceable(4) %0)
          to label %invoke.cont unwind label %terminate.lpad

invoke.cont:                                      ; preds = %entry
  ret void

terminate.lpad:                                   ; preds = %entry
  %1 = landingpad { ptr, i32 }
          catch ptr null
  %2 = extractvalue { ptr, i32 } %1, 0
  call void @__clang_call_terminate(ptr %2) #16
  unreachable
}

; Function Attrs: mustprogress nounwind uwtable
define linkonce_odr noundef i32 @_ZNOSt8optionalIiE8value_orIiEEiOT_(ptr noundef nonnull align 4 dereferenceable(8) %this, ptr noundef nonnull align 4 dereferenceable(4) %__u) #5 comdat align 2 {
entry:
  %retval = alloca i32, align 4
  %this.addr = alloca ptr, align 8
  %__u.addr = alloca ptr, align 8
  store ptr %this, ptr %this.addr, align 8
  store ptr %__u, ptr %__u.addr, align 8
  %this1 = load ptr, ptr %this.addr, align 8
  %call = call noundef zeroext i1 @_ZNKSt19_Optional_base_implIiSt14_Optional_baseIiLb1ELb1EEE13_M_is_engagedEv(ptr noundef nonnull align 1 dereferenceable(1) %this1) #3
  br i1 %call, label %if.then, label %if.else

if.then:                                          ; preds = %entry
  %call2 = call noundef nonnull align 4 dereferenceable(4) ptr @_ZNSt19_Optional_base_implIiSt14_Optional_baseIiLb1ELb1EEE6_M_getEv(ptr noundef nonnull align 1 dereferenceable(1) %this1) #3
  %0 = load i32, ptr %call2, align 4
  store i32 %0, ptr %retval, align 4
  br label %return

if.else:                                          ; preds = %entry
  %1 = load ptr, ptr %__u.addr, align 8
  %2 = load i32, ptr %1, align 4
  store i32 %2, ptr %retval, align 4
  br label %return

return:                                           ; preds = %if.else, %if.then
  %3 = load i32, ptr %retval, align 4
  ret i32 %3
}

; Function Attrs: mustprogress nounwind uwtable
define linkonce_odr void @_ZNSt17basic_string_viewIcSt11char_traitsIcEEC2EPKc(ptr noundef nonnull align 8 dereferenceable(16) %this, ptr noundef nonnull %__str) unnamed_addr #5 comdat align 2 personality ptr @__gxx_personality_v0 {
entry:
  %this.addr = alloca ptr, align 8
  %__str.addr = alloca ptr, align 8
  store ptr %this, ptr %this.addr, align 8
  store ptr %__str, ptr %__str.addr, align 8
  %this1 = load ptr, ptr %this.addr, align 8
  %_M_len = getelementptr inbounds %"class.std::basic_string_view", ptr %this1, i32 0, i32 0
  %0 = load ptr, ptr %__str.addr, align 8
  %call = invoke noundef i64 @_ZNSt11char_traitsIcE6lengthEPKc(ptr noundef %0)
          to label %invoke.cont unwind label %terminate.lpad

invoke.cont:                                      ; preds = %entry
  store i64 %call, ptr %_M_len, align 8
  %_M_str = getelementptr inbounds %"class.std::basic_string_view", ptr %this1, i32 0, i32 1
  %1 = load ptr, ptr %__str.addr, align 8
  store ptr %1, ptr %_M_str, align 8
  ret void

terminate.lpad:                                   ; preds = %entry
  %2 = landingpad { ptr, i32 }
          catch ptr null
  %3 = extractvalue { ptr, i32 } %2, 0
  call void @__clang_call_terminate(ptr %3) #16
  unreachable
}

; Function Attrs: mustprogress nounwind uwtable
define linkonce_odr void @_ZNSt8optionalIjEC2ESt9nullopt_t(ptr noundef nonnull align 4 dereferenceable(8) %this) unnamed_addr #5 comdat align 2 {
entry:
  %this.addr = alloca ptr, align 8
  store ptr %this, ptr %this.addr, align 8
  %this1 = load ptr, ptr %this.addr, align 8
  call void @_ZNSt14_Optional_baseIjLb1ELb1EEC2Ev(ptr noundef nonnull align 4 dereferenceable(8) %this1) #3
  ret void
}

; Function Attrs: mustprogress uwtable
define i64 @_ZN9grpc_core29GetMaxSendSizeFromChannelArgsERKNS_11ChannelArgsE(ptr noundef nonnull align 8 dereferenceable(8) %args) #4 {
entry:
  %retval = alloca %"class.std::optional", align 4
  %args.addr = alloca ptr, align 8
  %size = alloca i32, align 4
  %ref.tmp = alloca %"class.std::optional.1", align 4
  %agg.tmp1 = alloca %"class.std::basic_string_view", align 8
  %ref.tmp4 = alloca i32, align 4
  %ref.tmp9 = alloca i32, align 4
  store ptr %args, ptr %args.addr, align 8
  %0 = load ptr, ptr %args.addr, align 8
  %call = call noundef zeroext i1 @_ZNK9grpc_core11ChannelArgs16WantMinimalStackEv(ptr noundef nonnull align 8 dereferenceable(8) %0)
  br i1 %call, label %if.then, label %if.end

if.then:                                          ; preds = %entry
  call void @_ZNSt8optionalIjEC2ESt9nullopt_t(ptr noundef nonnull align 4 dereferenceable(8) %retval) #3
  br label %return

if.end:                                           ; preds = %entry
  %1 = load ptr, ptr %args.addr, align 8
  call void @_ZNSt17basic_string_viewIcSt11char_traitsIcEEC2EPKc(ptr noundef nonnull align 8 dereferenceable(16) %agg.tmp1, ptr noundef @.str.1) #3
  %2 = getelementptr inbounds { i64, ptr }, ptr %agg.tmp1, i32 0, i32 0
  %3 = load i64, ptr %2, align 8
  %4 = getelementptr inbounds { i64, ptr }, ptr %agg.tmp1, i32 0, i32 1
  %5 = load ptr, ptr %4, align 8
  %call2 = call i64 @_ZNK9grpc_core11ChannelArgs6GetIntESt17basic_string_viewIcSt11char_traitsIcEE(ptr noundef nonnull align 8 dereferenceable(8) %1, i64 %3, ptr %5)
  %coerce.dive = getelementptr inbounds %"class.std::optional.1", ptr %ref.tmp, i32 0, i32 0
  %coerce.dive3 = getelementptr inbounds %"struct.std::_Optional_base.2", ptr %coerce.dive, i32 0, i32 0
  store i64 %call2, ptr %coerce.dive3, align 4
  store i32 -1, ptr %ref.tmp4, align 4
  %call5 = call noundef i32 @_ZNOSt8optionalIiE8value_orIiEEiOT_(ptr noundef nonnull align 4 dereferenceable(8) %ref.tmp, ptr noundef nonnull align 4 dereferenceable(4) %ref.tmp4)
  store i32 %call5, ptr %size, align 4
  %6 = load i32, ptr %size, align 4
  %cmp = icmp slt i32 %6, 0
  br i1 %cmp, label %if.then6, label %if.end8

if.then6:                                         ; preds = %if.end
  call void @_ZNSt8optionalIjEC2ESt9nullopt_t(ptr noundef nonnull align 4 dereferenceable(8) %retval) #3
  br label %return

if.end8:                                          ; preds = %if.end
  %7 = load i32, ptr %size, align 4
  store i32 %7, ptr %ref.tmp9, align 4
  call void @_ZNSt8optionalIjEC2IjTnNSt9enable_ifIX7__and_vISt6__not_ISt7is_sameIS0_NSt9remove_cvINSt16remove_referenceIT_E4typeEE4typeEEES3_IS4_ISt10in_place_tSB_EESt16is_constructibleIjJS7_EESt14is_convertibleIS7_jEEEbE4typeELb1EEEOS7_(ptr noundef nonnull align 4 dereferenceable(8) %retval, ptr noundef nonnull align 4 dereferenceable(4) %ref.tmp9) #3
  br label %return

return:                                           ; preds = %if.end8, %if.then6, %if.then
  %coerce.dive10 = getelementptr inbounds %"class.std::optional", ptr %retval, i32 0, i32 0
  %coerce.dive11 = getelementptr inbounds %"struct.std::_Optional_base", ptr %coerce.dive10, i32 0, i32 0
  %8 = load i64, ptr %coerce.dive11, align 4
  ret i64 %8
}