; Function Attrs: mustprogress uwtable
define i64 @_ZN9grpc_core29GetMaxSendSizeFromChannelArgsERKNS_11ChannelArgsE(ptr noundef nonnull align 8 dereferenceable(8) %args) local_unnamed_addr #4 personality ptr @__gxx_personality_v0 {
entry:
  %call = tail call noundef zeroext i1 @_ZNK9grpc_core11ChannelArgs16WantMinimalStackEv(ptr noundef nonnull align 8 dereferenceable(8) %args)
  br i1 %call, label %return, label %if.end

if.end:                                           ; preds = %entry
  %call2 = tail call i64 @_ZNK9grpc_core11ChannelArgs6GetIntESt17basic_string_viewIcSt11char_traitsIcEE(ptr noundef nonnull align 8 dereferenceable(8) %args, i64 28, ptr nonnull @.str.1)
  %0 = and i64 %call2, 6442450944
  %cmp.not = icmp eq i64 %0, 4294967296
  %1 = select i1 %cmp.not, i64 4294967296, i64 0
  %2 = and i64 %call2, 4294967295
  %3 = or disjoint i64 %1, %2
  br label %return

return:                                           ; preds = %if.end, %entry
  %retval.sroa.0.0.insert.insert = phi i64 [ 0, %entry ], [ %3, %if.end ]
  ret i64 %retval.sroa.0.0.insert.insert
}